target datalayout = "e-m:e-p270:32:32-p271:32:32-p272:64:64-i64:64-i128:128-f80:128-n8:16:32:64-S128"
target triple = "x86_64-pc-linux-gnu"

; Function Attrs: mustprogress nounwind uwtable
define i32 @LZ4_freeStream(ptr noundef %0) #0 {
  %2 = alloca i32, align 4
  %3 = alloca ptr, align 8
  store ptr %0, ptr %3, align 8, !tbaa !35
  %4 = load ptr, ptr %3, align 8, !tbaa !35
  %5 = icmp ne ptr %4, null
  br i1 %5, label %7, label %6

6:                                                ; preds = %1
  store i32 0, ptr %2, align 4
  br label %9

7:                                                ; preds = %1
  %8 = load ptr, ptr %3, align 8, !tbaa !35
  call void @free(ptr noundef %8) #12
  store i32 0, ptr %2, align 4
  br label %9

9:                                                ; preds = %7, %6
  %10 = load i32, ptr %2, align 4
  ret i32 %10
}